target datalayout = "e-m:e-p270:32:32-p271:32:32-p272:64:64-i64:64-i128:128-f80:128-n8:16:32:64-S128"
target triple = "x86_64-pc-linux-gnu"

%struct.H5F_shared_t = type { ptr, ptr, ptr, i8, i32, i32, %struct.H5F_mtab_t, ptr, i8, i8, i64, i32, i32, i64, i64, ptr, ptr, %struct.H5AC_cache_config_t, %struct.H5AC_cache_image_config_t, i8, i8, ptr, i64, i32, i8, i64, i64, double, i64, i64, i64, i32, i32, i32, i8, i32, ptr, ptr, ptr, ptr, i8, i8, i8, i64, i64, ptr, ptr, i32, i64, i8, i32, i8, i64, i8, [13 x i32], [13 x i64], [13 x ptr], i8, i64, i64, [7 x i32], [7 x i32], %struct.H5F_blk_aggr_t, %struct.H5F_blk_aggr_t, i64, i64, %struct.H5F_meta_accum_t, i32, i32, [30 x ptr], %struct.H5F_object_flush_t, i8, ptr }
%struct.H5F_mtab_t = type { i32, i32, ptr }
%struct.H5AC_cache_config_t = type { i32, i8, i8, i8, [1025 x i8], i8, i8, i64, double, i64, i64, i64, i32, double, double, i8, i64, i32, double, double, i32, double, double, i8, i64, i32, i8, double, i64, i32 }
%struct.H5AC_cache_image_config_t = type { i32, i8, i8, i32 }
%struct.H5F_blk_aggr_t = type { i64, i64, i64, i64, i64 }
%struct.H5F_meta_accum_t = type { ptr, i64, i64, i64, i64, i64, i8 }
%struct.H5F_object_flush_t = type { ptr, ptr }

@.str = private unnamed_addr constant [99 x i8] c"generated/home/dtcxzyw/WorkSpace/Projects/compilers/llvm-opt-benchmark/bench/hdf5/hdf5/src/H5Fio.c\00", align 1
@__func__.H5F_shared_block_read = private unnamed_addr constant [22 x i8] c"H5F_shared_block_read\00", align 1
@H5E_IO_g = external global i64, align 8
@H5E_BADRANGE_g = external global i64, align 8
@.str.1 = private unnamed_addr constant [39 x i8] c"attempting I/O in temporary file space\00", align 1
@H5E_READERROR_g = external global i64, align 8
@.str.2 = private unnamed_addr constant [32 x i8] c"read through page buffer failed\00", align 1

; Function Attrs: nounwind uwtable
define i32 @H5F_shared_block_read(ptr noundef %0, i32 noundef %1, i64 noundef %2, i64 noundef %3, ptr noundef %4) #0 {
  %6 = alloca ptr, align 8
  %7 = alloca i32, align 4
  %8 = alloca i64, align 8
  %9 = alloca i64, align 8
  %10 = alloca ptr, align 8
  %11 = alloca i32, align 4
  %12 = alloca i32, align 4
  %13 = alloca i8, align 1
  store ptr %0, ptr %6, align 8
  store i32 %1, ptr %7, align 4
  store i64 %2, ptr %8, align 8
  store i64 %3, ptr %9, align 8
  store ptr %4, ptr %10, align 8
  store i32 0, ptr %12, align 4
  store i8 0, ptr %13, align 1
  %14 = load ptr, ptr %6, align 8
  %15 = getelementptr inbounds %struct.H5F_shared_t, ptr %14, i32 0, i32 52
  %16 = load i64, ptr %15, align 8
  %17 = icmp ne i64 %16, -1
  br i1 %17, label %18, label %46

18:                                               ; preds = %5
  %19 = load i64, ptr %8, align 8
  %20 = load i64, ptr %9, align 8
  %21 = add i64 %19, %20
  %22 = icmp ne i64 %21, -1
  br i1 %22, label %23, label %46

23:                                               ; preds = %18
  %24 = load ptr, ptr %6, align 8
  %25 = getelementptr inbounds %struct.H5F_shared_t, ptr %24, i32 0, i32 52
  %26 = load i64, ptr %25, align 8
  %27 = load i64, ptr %8, align 8
  %28 = load i64, ptr %9, align 8
  %29 = add i64 %27, %28
  %30 = icmp ule i64 %26, %29
  br i1 %30, label %31, label %46

31:                                               ; preds = %23
  br label %32

32:                                               ; preds = %31
  br label %33

33:                                               ; preds = %32
  br label %34

34:                                               ; preds = %33
  %35 = load i64, ptr @H5E_IO_g, align 8
  %36 = load i64, ptr @H5E_BADRANGE_g, align 8
  %37 = call i32 (ptr, ptr, i32, i64, i64, ptr, ...) @H5E_printf_stack(ptr noundef @.str, ptr noundef @__func__.H5F_shared_block_read, i32 noundef 91, i64 noundef %35, i64 noundef %36, ptr noundef @.str.1)
  br label %38

38:                                               ; preds = %34
  store i8 1, ptr %13, align 1
  %39 = load i8, ptr %13, align 1
  %40 = trunc i8 %39 to i1
  %41 = zext i1 %40 to i8
  store i8 %41, ptr %13, align 1
  br label %42

42:                                               ; preds = %38
  br label %43

43:                                               ; preds = %42
  store i32 -1, ptr %12, align 4
  br label %77

44:                                               ; No predecessors!
  br label %45

45:                                               ; preds = %44
  br label %46

46:                                               ; preds = %45, %23, %18, %5
  %47 = load i32, ptr %7, align 4
  %48 = icmp eq i32 %47, 4
  br i1 %48, label %49, label %50

49:                                               ; preds = %46
  br label %52

50:                                               ; preds = %46
  %51 = load i32, ptr %7, align 4
  br label %52

52:                                               ; preds = %50, %49
  %53 = phi i32 [ 3, %49 ], [ %51, %50 ]
  store i32 %53, ptr %11, align 4
  %54 = load ptr, ptr %6, align 8
  %55 = load i32, ptr %11, align 4
  %56 = load i64, ptr %8, align 8
  %57 = load i64, ptr %9, align 8
  %58 = load ptr, ptr %10, align 8
  %59 = call i32 @H5PB_read(ptr noundef %54, i32 noundef %55, i64 noundef %56, i64 noundef %57, ptr noundef %58)
  %60 = icmp slt i32 %59, 0
  br i1 %60, label %61, label %76

61:                                               ; preds = %52
  br label %62

62:                                               ; preds = %61
  br label %63

63:                                               ; preds = %62
  br label %64

64:                                               ; preds = %63
  %65 = load i64, ptr @H5E_IO_g, align 8
  %66 = load i64, ptr @H5E_READERROR_g, align 8
  %67 = call i32 (ptr, ptr, i32, i64, i64, ptr, ...) @H5E_printf_stack(ptr noundef @.str, ptr noundef @__func__.H5F_shared_block_read, i32 noundef 98, i64 noundef %65, i64 noundef %66, ptr noundef @.str.2)
  br label %68

68:                                               ; preds = %64
  store i8 1, ptr %13, align 1
  %69 = load i8, ptr %13, align 1
  %70 = trunc i8 %69 to i1
  %71 = zext i1 %70 to i8
  store i8 %71, ptr %13, align 1
  br label %72

72:                                               ; preds = %68
  br label %73

73:                                               ; preds = %72
  store i32 -1, ptr %12, align 4
  br label %77

74:                                               ; No predecessors!
  br label %75

75:                                               ; preds = %74
  br label %76

76:                                               ; preds = %75, %52
  br label %77

77:                                               ; preds = %76, %73, %43
  %78 = load i32, ptr %12, align 4
  ret i32 %78
}